target datalayout = "e-m:e-p270:32:32-p271:32:32-p272:64:64-i64:64-i128:128-f80:128-n8:16:32:64-S128"
target triple = "x86_64-pc-linux-gnu"

%struct.rf_context = type { ptr, i8, i32, i32 }
%struct.Node = type { i32 }
%struct.Var = type { %struct.Expr, i32, i16, i32, i32, i32, ptr, i32, i32, i32, i16, i32 }
%struct.Expr = type { i32 }

; Function Attrs: nounwind uwtable
define internal zeroext i1 @contain_invalid_rfcolumn_walker(ptr noundef %0, ptr noundef %1) #0 {
  %3 = alloca i1, align 1
  %4 = alloca ptr, align 8
  %5 = alloca ptr, align 8
  %6 = alloca ptr, align 8
  %7 = alloca i16, align 2
  %8 = alloca ptr, align 8
  %9 = alloca i32, align 4
  store ptr %0, ptr %4, align 8
  store ptr %1, ptr %5, align 8
  %10 = load ptr, ptr %4, align 8
  %11 = icmp eq ptr %10, null
  br i1 %11, label %12, label %13

12:                                               ; preds = %2
  store i1 false, ptr %3, align 1
  br label %55

13:                                               ; preds = %2
  %14 = load ptr, ptr %4, align 8
  %15 = getelementptr inbounds nuw %struct.Node, ptr %14, i32 0, i32 0
  %16 = load i32, ptr %15, align 4
  %17 = icmp eq i32 %16, 6
  br i1 %17, label %18, label %51

18:                                               ; preds = %13
  call void @llvm.lifetime.start.p0(i64 8, ptr %6) #10
  %19 = load ptr, ptr %4, align 8
  store ptr %19, ptr %6, align 8
  call void @llvm.lifetime.start.p0(i64 2, ptr %7) #10
  %20 = load ptr, ptr %6, align 8
  %21 = getelementptr inbounds nuw %struct.Var, ptr %20, i32 0, i32 2
  %22 = load i16, ptr %21, align 8
  store i16 %22, ptr %7, align 2
  %23 = load ptr, ptr %5, align 8
  %24 = getelementptr inbounds nuw %struct.rf_context, ptr %23, i32 0, i32 1
  %25 = load i8, ptr %24, align 8, !range !4, !noundef !5
  %26 = trunc i8 %25 to i1
  br i1 %26, label %27, label %38

27:                                               ; preds = %18
  call void @llvm.lifetime.start.p0(i64 8, ptr %8) #10
  %28 = load ptr, ptr %5, align 8
  %29 = getelementptr inbounds nuw %struct.rf_context, ptr %28, i32 0, i32 3
  %30 = load i32, ptr %29, align 8
  %31 = load i16, ptr %7, align 2
  %32 = call ptr @get_attname(i32 noundef %30, i16 noundef signext %31, i1 noundef zeroext false)
  store ptr %32, ptr %8, align 8
  %33 = load ptr, ptr %5, align 8
  %34 = getelementptr inbounds nuw %struct.rf_context, ptr %33, i32 0, i32 2
  %35 = load i32, ptr %34, align 4
  %36 = load ptr, ptr %8, align 8
  %37 = call signext i16 @get_attnum(i32 noundef %35, ptr noundef %36)
  store i16 %37, ptr %7, align 2
  call void @llvm.lifetime.end.p0(i64 8, ptr %8) #10
  br label %38

38:                                               ; preds = %27, %18
  %39 = load i16, ptr %7, align 2
  %40 = sext i16 %39 to i32
  %41 = sub i32 %40, -7
  %42 = load ptr, ptr %5, align 8
  %43 = getelementptr inbounds nuw %struct.rf_context, ptr %42, i32 0, i32 0
  %44 = load ptr, ptr %43, align 8
  %45 = call zeroext i1 @bms_is_member(i32 noundef %41, ptr noundef %44)
  br i1 %45, label %47, label %46

46:                                               ; preds = %38
  store i1 true, ptr %3, align 1
  store i32 1, ptr %9, align 4
  br label %48

47:                                               ; preds = %38
  store i32 0, ptr %9, align 4
  br label %48

48:                                               ; preds = %47, %46
  call void @llvm.lifetime.end.p0(i64 2, ptr %7) #10
  call void @llvm.lifetime.end.p0(i64 8, ptr %6) #10
  %49 = load i32, ptr %9, align 4
  switch i32 %49, label %57 [
    i32 0, label %50
    i32 1, label %55
  ]

50:                                               ; preds = %48
  br label %51

51:                                               ; preds = %50, %13
  %52 = load ptr, ptr %4, align 8
  %53 = load ptr, ptr %5, align 8
  %54 = call zeroext i1 @expression_tree_walker_impl(ptr noundef %52, ptr noundef @contain_invalid_rfcolumn_walker, ptr noundef %53)
  store i1 %54, ptr %3, align 1
  br label %55

55:                                               ; preds = %51, %48, %12
  %56 = load i1, ptr %3, align 1
  ret i1 %56

57:                                               ; preds = %48
  unreachable
}