; Function Attrs: nounwind uwtable
define internal zeroext i1 @contain_invalid_rfcolumn_walker(ptr noundef %0, ptr noundef %1) #0 {
  %3 = icmp eq ptr %0, null
  br i1 %3, label %27, label %4

4:                                                ; preds = %2
  %5 = load i32, ptr %0, align 4
  %6 = icmp eq i32 %5, 6
  br i1 %6, label %7, label %25

7:                                                ; preds = %4
  %8 = getelementptr inbounds nuw i8, ptr %0, i64 8
  %9 = load i16, ptr %8, align 8
  %10 = getelementptr inbounds nuw i8, ptr %1, i64 8
  %11 = load i8, ptr %10, align 8, !range !4, !noundef !5
  %12 = trunc nuw i8 %11 to i1
  br i1 %12, label %13, label %20

13:                                               ; preds = %7
  %14 = getelementptr inbounds nuw i8, ptr %1, i64 16
  %15 = load i32, ptr %14, align 8
  %16 = tail call ptr @get_attname(i32 noundef %15, i16 noundef signext %9, i1 noundef zeroext false) #8
  %17 = getelementptr inbounds nuw i8, ptr %1, i64 12
  %18 = load i32, ptr %17, align 4
  %19 = tail call signext i16 @get_attnum(i32 noundef %18, ptr noundef %16) #8
  br label %20

20:                                               ; preds = %13, %7
  %.015 = phi i16 [ %19, %13 ], [ %9, %7 ]
  %21 = sext i16 %.015 to i32
  %22 = add nsw i32 %21, 7
  %23 = load ptr, ptr %1, align 8
  %24 = tail call zeroext i1 @bms_is_member(i32 noundef %22, ptr noundef %23) #8
  br i1 %24, label %25, label %27

25:                                               ; preds = %20, %4
  %26 = tail call zeroext i1 @expression_tree_walker_impl(ptr noundef nonnull %0, ptr noundef nonnull @contain_invalid_rfcolumn_walker, ptr noundef %1) #8
  br label %27

27:                                               ; preds = %20, %2, %25
  %.014 = phi i1 [ true, %20 ], [ %26, %25 ], [ false, %2 ]
  ret i1 %.014
}